target datalayout = "e-m:e-p270:32:32-p271:32:32-p272:64:64-i64:64-i128:128-f80:128-n8:16:32:64-S128"
target triple = "x86_64-pc-linux-gnu"

%class.GraphKit = type <{ ptr, %class.Phase, ptr, ptr, ptr, ptr, i32, [4 x i8], ptr, ptr, i32, [4 x i8] }>
%class.Phase = type { i32, ptr }
%class.ciMetadata = type { %class.ciBaseObject.base, ptr }
%class.ciBaseObject.base = type <{ ptr, i32 }>
%class.ciFlags = type <{ i32, i8, i8, [2 x i8] }>
%class.ciInstanceKlass = type { %class.ciKlass.base, ptr, ptr, i8, i8, i8, i32, i8, i8, i8, i8, i8, [3 x i8], %class.ciFlags, ptr, ptr, ptr, ptr, i32, ptr, ptr }
%class.ciKlass.base = type <{ %class.ciType.base, [7 x i8], ptr, i32 }>
%class.ciType.base = type <{ %class.ciMetadata, i8 }>

; Function Attrs: mustprogress nounwind uwtable
define linkonce_odr hidden noundef zeroext i1 @_ZNK10ciMetadata9is_loadedEv(ptr noundef nonnull align 8 dereferenceable(24) %0) #1 comdat align 2 {
  %2 = alloca ptr, align 8
  store ptr %0, ptr %2, align 8
  %3 = load ptr, ptr %2, align 8
  %4 = getelementptr inbounds %class.ciMetadata, ptr %3, i32 0, i32 1
  %5 = load ptr, ptr %4, align 8
  %6 = icmp ne ptr %5, null
  br i1 %6, label %12, label %7

7:                                                ; preds = %1
  %8 = load ptr, ptr %3, align 8
  %9 = getelementptr inbounds ptr, ptr %8, i64 4
  %10 = load ptr, ptr %9, align 8
  %11 = call noundef zeroext i1 %10(ptr noundef nonnull align 8 dereferenceable(24) %3)
  br label %12

12:                                               ; preds = %7, %1
  %13 = phi i1 [ true, %1 ], [ %11, %7 ]
  ret i1 %13
}

; Function Attrs: mustprogress nounwind uwtable
define linkonce_odr hidden noundef i32 @_ZN14Deoptimization17make_trap_requestENS_11DeoptReasonENS_11DeoptActionEi(i32 noundef %0, i32 noundef %1, i32 noundef %2) #1 comdat align 2 {
  %4 = alloca i32, align 4
  %5 = alloca i32, align 4
  %6 = alloca i32, align 4
  %7 = alloca i32, align 4
  store i32 %0, ptr %4, align 4
  store i32 %1, ptr %5, align 4
  store i32 %2, ptr %6, align 4
  %8 = load i32, ptr %6, align 4
  %9 = icmp ne i32 %8, -1
  br i1 %9, label %10, label %12

10:                                               ; preds = %3
  %11 = load i32, ptr %6, align 4
  store i32 %11, ptr %7, align 4
  br label %19

12:                                               ; preds = %3
  %13 = load i32, ptr %4, align 4
  %14 = shl i32 %13, 3
  %15 = load i32, ptr %5, align 4
  %16 = shl i32 %15, 0
  %17 = add nsw i32 %14, %16
  %18 = xor i32 %17, -1
  store i32 %18, ptr %7, align 4
  br label %19

19:                                               ; preds = %12, %10
  %20 = load i32, ptr %7, align 4
  ret i32 %20
}

; Function Attrs: mustprogress nounwind uwtable
define linkonce_odr hidden void @_ZN15ciInstanceKlass16update_if_sharedEN13InstanceKlass10ClassStateE(ptr noundef nonnull align 8 dereferenceable(144) %0, i8 noundef zeroext %1) #1 comdat align 2 {
  %3 = alloca ptr, align 8
  %4 = alloca i8, align 1
  store ptr %0, ptr %3, align 8
  store i8 %1, ptr %4, align 1
  %5 = load ptr, ptr %3, align 8
  %6 = getelementptr inbounds %class.ciInstanceKlass, ptr %5, i32 0, i32 4
  %7 = load i8, ptr %6, align 1
  %8 = trunc i8 %7 to i1
  br i1 %8, label %9, label %20

9:                                                ; preds = %2
  %10 = getelementptr inbounds %class.ciInstanceKlass, ptr %5, i32 0, i32 3
  %11 = load i8, ptr %10, align 8
  %12 = zext i8 %11 to i32
  %13 = load i8, ptr %4, align 1
  %14 = zext i8 %13 to i32
  %15 = icmp ne i32 %12, %14
  br i1 %15, label %16, label %20

16:                                               ; preds = %9
  %17 = call noundef zeroext i1 @_ZNK10ciMetadata9is_loadedEv(ptr noundef nonnull align 8 dereferenceable(24) %5)
  br i1 %17, label %18, label %19

18:                                               ; preds = %16
  call void @_ZN15ciInstanceKlass25compute_shared_init_stateEv(ptr noundef nonnull align 8 dereferenceable(144) %5)
  br label %19

19:                                               ; preds = %18, %16
  br label %20

20:                                               ; preds = %19, %9, %2
  ret void
}

; Function Attrs: mustprogress nounwind uwtable
define linkonce_odr hidden noundef ptr @_ZN8GraphKit13uncommon_trapEN14Deoptimization11DeoptReasonENS0_11DeoptActionEP7ciKlassPKcbb(ptr noundef nonnull align 8 dereferenceable(84) %0, i32 noundef %1, i32 noundef %2, ptr noundef %3, ptr noundef %4, i1 noundef zeroext %5, i1 noundef zeroext %6) #1 comdat align 2 {
  %8 = alloca ptr, align 8
  %9 = alloca i32, align 4
  %10 = alloca i32, align 4
  %11 = alloca ptr, align 8
  %12 = alloca ptr, align 8
  %13 = alloca i8, align 1
  %14 = alloca i8, align 1
  store ptr %0, ptr %8, align 8
  store i32 %1, ptr %9, align 4
  store i32 %2, ptr %10, align 4
  store ptr %3, ptr %11, align 8
  store ptr %4, ptr %12, align 8
  %15 = zext i1 %5 to i8
  store i8 %15, ptr %13, align 1
  %16 = zext i1 %6 to i8
  store i8 %16, ptr %14, align 1
  %17 = load ptr, ptr %8, align 8
  %18 = load i32, ptr %9, align 4
  %19 = load i32, ptr %10, align 4
  %20 = call noundef i32 @_ZN14Deoptimization17make_trap_requestENS_11DeoptReasonENS_11DeoptActionEi(i32 noundef %18, i32 noundef %19, i32 noundef -1)
  %21 = load ptr, ptr %11, align 8
  %22 = load ptr, ptr %12, align 8
  %23 = load i8, ptr %13, align 1
  %24 = trunc i8 %23 to i1
  %25 = load i8, ptr %14, align 1
  %26 = trunc i8 %25 to i1
  %27 = call noundef ptr @_ZN8GraphKit13uncommon_trapEiP7ciKlassPKcbb(ptr noundef nonnull align 8 dereferenceable(84) %17, i32 noundef %20, ptr noundef %21, ptr noundef %22, i1 noundef zeroext %24, i1 noundef zeroext %26)
  ret ptr %27
}

; Function Attrs: mustprogress nounwind uwtable
define linkonce_odr hidden noundef zeroext i1 @_ZN15ciInstanceKlass14is_initializedEv(ptr noundef nonnull align 8 dereferenceable(144) %0) #1 comdat align 2 {
  %2 = alloca ptr, align 8
  store ptr %0, ptr %2, align 8
  %3 = load ptr, ptr %2, align 8
  call void @_ZN15ciInstanceKlass16update_if_sharedEN13InstanceKlass10ClassStateE(ptr noundef nonnull align 8 dereferenceable(144) %3, i8 noundef zeroext 4)
  %4 = getelementptr inbounds %class.ciInstanceKlass, ptr %3, i32 0, i32 3
  %5 = load i8, ptr %4, align 8
  %6 = zext i8 %5 to i32
  %7 = icmp eq i32 %6, 4
  ret i1 %7
}

; Function Attrs: mustprogress nounwind uwtable
define linkonce_odr hidden noundef ptr @_ZNK8GraphKit7makeconEPK4Type(ptr noundef nonnull align 8 dereferenceable(84) %0, ptr noundef %1) #1 comdat align 2 {
  %3 = alloca ptr, align 8
  %4 = alloca ptr, align 8
  store ptr %0, ptr %3, align 8
  store ptr %1, ptr %4, align 8
  %5 = load ptr, ptr %3, align 8
  %6 = getelementptr inbounds %class.GraphKit, ptr %5, i32 0, i32 3
  %7 = load ptr, ptr %6, align 8
  %8 = load ptr, ptr %4, align 8
  %9 = call noundef ptr @_ZN11PhaseValues7makeconEPK4Type(ptr noundef nonnull align 8 dereferenceable(2400) %7, ptr noundef %8)
  ret ptr %9
}

; Function Attrs: mustprogress nounwind uwtable
define linkonce_odr hidden noundef zeroext i1 @_ZN15ciInstanceKlass20is_being_initializedEv(ptr noundef nonnull align 8 dereferenceable(144) %0) #1 comdat align 2 {
  %2 = alloca ptr, align 8
  store ptr %0, ptr %2, align 8
  %3 = load ptr, ptr %2, align 8
  call void @_ZN15ciInstanceKlass16update_if_sharedEN13InstanceKlass10ClassStateE(ptr noundef nonnull align 8 dereferenceable(144) %3, i8 noundef zeroext 3)
  %4 = getelementptr inbounds %class.ciInstanceKlass, ptr %3, i32 0, i32 3
  %5 = load i8, ptr %4, align 8
  %6 = zext i8 %5 to i32
  %7 = icmp eq i32 %6, 3
  ret i1 %7
}

; Function Attrs: mustprogress nounwind uwtable
define hidden void @_ZN8GraphKit14clinit_barrierEP15ciInstanceKlassP8ciMethod(ptr noundef nonnull align 8 dereferenceable(84) %0, ptr noundef %1, ptr noundef %2) #1 align 2 {
  %4 = alloca ptr, align 8
  %5 = alloca ptr, align 8
  %6 = alloca ptr, align 8
  %7 = alloca ptr, align 8
  store ptr %0, ptr %4, align 8
  store ptr %1, ptr %5, align 8
  store ptr %2, ptr %6, align 8
  %8 = load ptr, ptr %4, align 8
  %9 = load ptr, ptr %5, align 8
  %10 = call noundef zeroext i1 @_ZN15ciInstanceKlass20is_being_initializedEv(ptr noundef nonnull align 8 dereferenceable(144) %9)
  br i1 %10, label %11, label %26

11:                                               ; preds = %3
  %12 = getelementptr inbounds i8, ptr %8, i64 8
  %13 = getelementptr inbounds %class.Phase, ptr %12, i32 0, i32 1
  %14 = load ptr, ptr %13, align 8
  %15 = load ptr, ptr %5, align 8
  %16 = load ptr, ptr %6, align 8
  %17 = call noundef zeroext i1 @_ZN7Compile20needs_clinit_barrierEP15ciInstanceKlassP8ciMethod(ptr noundef nonnull align 8 dereferenceable(2316) %14, ptr noundef %15, ptr noundef %16)
  br i1 %17, label %18, label %25

18:                                               ; preds = %11
  %19 = load ptr, ptr %5, align 8
  %20 = call noundef ptr @_ZN12TypeKlassPtr4makeEP7ciKlassN4Type17InterfaceHandlingE(ptr noundef %19, i32 noundef 1)
  %21 = call noundef ptr @_ZNK8GraphKit7makeconEPK4Type(ptr noundef nonnull align 8 dereferenceable(84) %8, ptr noundef %20)
  store ptr %21, ptr %7, align 8
  %22 = load ptr, ptr %7, align 8
  call void @_ZN8GraphKit29guard_klass_being_initializedEP4Node(ptr noundef nonnull align 8 dereferenceable(84) %8, ptr noundef %22)
  %23 = load ptr, ptr %7, align 8
  call void @_ZN8GraphKit17guard_init_threadEP4Node(ptr noundef nonnull align 8 dereferenceable(84) %8, ptr noundef %23)
  %24 = call noundef ptr @_ZN8GraphKit14insert_mem_barEiP4Node(ptr noundef nonnull align 8 dereferenceable(84) %8, i32 noundef 216, ptr noundef null)
  br label %25

25:                                               ; preds = %18, %11
  br label %33

26:                                               ; preds = %3
  %27 = load ptr, ptr %5, align 8
  %28 = call noundef zeroext i1 @_ZN15ciInstanceKlass14is_initializedEv(ptr noundef nonnull align 8 dereferenceable(144) %27)
  br i1 %28, label %29, label %30

29:                                               ; preds = %26
  br label %33

30:                                               ; preds = %26
  %31 = call noundef ptr @_ZN8GraphKit13uncommon_trapEN14Deoptimization11DeoptReasonENS0_11DeoptActionEP7ciKlassPKcbb(ptr noundef nonnull align 8 dereferenceable(84) %8, i32 noundef 10, i32 noundef 2, ptr noundef null, ptr noundef null, i1 noundef zeroext false, i1 noundef zeroext false)
  br label %32

32:                                               ; preds = %30
  br label %33

33:                                               ; preds = %32, %29, %25
  ret void
}