; Function Attrs: mustprogress nounwind uwtable
define hidden void @_ZN8GraphKit14clinit_barrierEP15ciInstanceKlassP8ciMethod(ptr noundef nonnull align 8 dereferenceable(84) %0, ptr noundef %1, ptr noundef %2) local_unnamed_addr #0 align 2 {
  %4 = getelementptr inbounds i8, ptr %1, i64 65
  %5 = load i8, ptr %4, align 1
  %6 = trunc i8 %5 to i1
  %7 = getelementptr inbounds i8, ptr %1, i64 64
  %8 = load i8, ptr %7, align 8
  %.not.i.i = icmp ne i8 %8, 3
  %or.cond.not.i.i = select i1 %6, i1 %.not.i.i, i1 false
  br i1 %or.cond.not.i.i, label %9, label %_ZN15ciInstanceKlass20is_being_initializedEv.exit

9:                                                ; preds = %3
  %10 = getelementptr inbounds i8, ptr %1, i64 16
  %11 = load ptr, ptr %10, align 8
  %.not.i.i.i = icmp eq ptr %11, null
  br i1 %.not.i.i.i, label %_ZNK10ciMetadata9is_loadedEv.exit.i.i, label %_ZNK10ciMetadata9is_loadedEv.exit.thread.i.i

_ZNK10ciMetadata9is_loadedEv.exit.i.i:            ; preds = %9
  %12 = load ptr, ptr %1, align 8
  %13 = getelementptr inbounds i8, ptr %12, i64 32
  %14 = load ptr, ptr %13, align 8
  %15 = tail call noundef zeroext i1 %14(ptr noundef nonnull align 8 dereferenceable(24) %1) #13
  br i1 %15, label %_ZNK10ciMetadata9is_loadedEv.exit.thread.i.i, label %_ZN15ciInstanceKlass20is_being_initializedEv.exitthread-pre-split

_ZNK10ciMetadata9is_loadedEv.exit.thread.i.i:     ; preds = %_ZNK10ciMetadata9is_loadedEv.exit.i.i, %9
  tail call void @_ZN15ciInstanceKlass25compute_shared_init_stateEv(ptr noundef nonnull align 8 dereferenceable(144) %1) #13
  br label %_ZN15ciInstanceKlass20is_being_initializedEv.exitthread-pre-split

_ZN15ciInstanceKlass20is_being_initializedEv.exitthread-pre-split: ; preds = %_ZNK10ciMetadata9is_loadedEv.exit.thread.i.i, %_ZNK10ciMetadata9is_loadedEv.exit.i.i
  %.pr = load i8, ptr %7, align 8
  br label %_ZN15ciInstanceKlass20is_being_initializedEv.exit

_ZN15ciInstanceKlass20is_being_initializedEv.exit: ; preds = %_ZN15ciInstanceKlass20is_being_initializedEv.exitthread-pre-split, %3
  %16 = phi i8 [ %.pr, %_ZN15ciInstanceKlass20is_being_initializedEv.exitthread-pre-split ], [ %8, %3 ]
  %17 = icmp eq i8 %16, 3
  br i1 %17, label %18, label %28

18:                                               ; preds = %_ZN15ciInstanceKlass20is_being_initializedEv.exit
  %19 = getelementptr inbounds i8, ptr %0, i64 16
  %20 = load ptr, ptr %19, align 8
  %21 = tail call noundef zeroext i1 @_ZN7Compile20needs_clinit_barrierEP15ciInstanceKlassP8ciMethod(ptr noundef nonnull align 8 dereferenceable(2316) %20, ptr noundef nonnull %1, ptr noundef %2) #13
  br i1 %21, label %22, label %42

22:                                               ; preds = %18
  %23 = tail call noundef ptr @_ZN12TypeKlassPtr4makeEP7ciKlassN4Type17InterfaceHandlingE(ptr noundef nonnull %1, i32 noundef 1) #13
  %24 = getelementptr inbounds i8, ptr %0, i64 32
  %25 = load ptr, ptr %24, align 8
  %26 = tail call noundef ptr @_ZN11PhaseValues7makeconEPK4Type(ptr noundef nonnull align 8 dereferenceable(2400) %25, ptr noundef %23) #13
  tail call void @_ZN8GraphKit29guard_klass_being_initializedEP4Node(ptr noundef nonnull align 8 dereferenceable(84) %0, ptr noundef %26)
  tail call void @_ZN8GraphKit17guard_init_threadEP4Node(ptr noundef nonnull align 8 dereferenceable(84) %0, ptr noundef %26)
  %27 = tail call noundef ptr @_ZN8GraphKit14insert_mem_barEiP4Node(ptr noundef nonnull align 8 dereferenceable(84) %0, i32 noundef 216, ptr noundef null)
  br label %42

28:                                               ; preds = %_ZN15ciInstanceKlass20is_being_initializedEv.exit
  %29 = load i8, ptr %4, align 1
  %30 = trunc i8 %29 to i1
  %.not.i.i8 = icmp ne i8 %16, 4
  %or.cond.not.i.i9 = and i1 %.not.i.i8, %30
  br i1 %or.cond.not.i.i9, label %31, label %_ZN15ciInstanceKlass14is_initializedEv.exit

31:                                               ; preds = %28
  %32 = getelementptr inbounds i8, ptr %1, i64 16
  %33 = load ptr, ptr %32, align 8
  %.not.i.i.i10 = icmp eq ptr %33, null
  br i1 %.not.i.i.i10, label %_ZNK10ciMetadata9is_loadedEv.exit.i.i12, label %_ZNK10ciMetadata9is_loadedEv.exit.thread.i.i11

_ZNK10ciMetadata9is_loadedEv.exit.i.i12:          ; preds = %31
  %34 = load ptr, ptr %1, align 8
  %35 = getelementptr inbounds i8, ptr %34, i64 32
  %36 = load ptr, ptr %35, align 8
  %37 = tail call noundef zeroext i1 %36(ptr noundef nonnull align 8 dereferenceable(24) %1) #13
  br i1 %37, label %_ZNK10ciMetadata9is_loadedEv.exit.thread.i.i11, label %_ZN15ciInstanceKlass14is_initializedEv.exit

_ZNK10ciMetadata9is_loadedEv.exit.thread.i.i11:   ; preds = %_ZNK10ciMetadata9is_loadedEv.exit.i.i12, %31
  tail call void @_ZN15ciInstanceKlass25compute_shared_init_stateEv(ptr noundef nonnull align 8 dereferenceable(144) %1) #13
  br label %_ZN15ciInstanceKlass14is_initializedEv.exit

_ZN15ciInstanceKlass14is_initializedEv.exit:      ; preds = %28, %_ZNK10ciMetadata9is_loadedEv.exit.i.i12, %_ZNK10ciMetadata9is_loadedEv.exit.thread.i.i11
  %38 = load i8, ptr %7, align 8
  %39 = icmp eq i8 %38, 4
  br i1 %39, label %42, label %40

40:                                               ; preds = %_ZN15ciInstanceKlass14is_initializedEv.exit
  %41 = tail call noundef ptr @_ZN8GraphKit13uncommon_trapEiP7ciKlassPKcbb(ptr noundef nonnull align 8 dereferenceable(84) %0, i32 noundef -83, ptr noundef null, ptr noundef null, i1 noundef zeroext false, i1 noundef zeroext false)
  br label %42

42:                                               ; preds = %_ZN15ciInstanceKlass14is_initializedEv.exit, %18, %22, %40
  ret void
}